target datalayout = "e-m:e-p270:32:32-p271:32:32-p272:64:64-i64:64-i128:128-f80:128-n8:16:32:64-S128"
target triple = "x86_64-unknown-linux-gnu"

%"class.icu_75::TimeZoneRule" = type { %"class.icu_75::UObject", %"class.icu_75::UnicodeString", i32, i32 }
%"class.icu_75::UObject" = type { ptr }
%"class.icu_75::UnicodeString" = type { %"class.icu_75::Replaceable", %"union.icu_75::UnicodeString::StackBufferOrFields" }
%"class.icu_75::Replaceable" = type { %"class.icu_75::UObject" }
%"union.icu_75::UnicodeString::StackBufferOrFields" = type { %struct.anon.0, [32 x i8] }
%struct.anon.0 = type { i16, i32, i32, ptr }
%"class.icu_75::AnnualTimeZoneRule" = type { %"class.icu_75::TimeZoneRule", ptr, i32, i32 }

@_ZTVN6icu_757UObjectE = external unnamed_addr constant { [5 x ptr] }, align 8

; Function Attrs: mustprogress nounwind uwtable
define linkonce_odr void @_ZN6icu_757UObjectC2Ev(ptr noundef nonnull align 8 dereferenceable(8) %this) unnamed_addr #2 comdat align 2 {
entry:
  %this.addr = alloca ptr, align 8
  store ptr %this, ptr %this.addr, align 8
  %this1 = load ptr, ptr %this.addr, align 8
  store ptr getelementptr inbounds ({ [5 x ptr] }, ptr @_ZTVN6icu_757UObjectE, i32 0, i32 0, i32 2), ptr %this1, align 8
  ret void
}

; Function Attrs: mustprogress uwtable
define void @_ZN6icu_7512TimeZoneRuleC2ERKNS_13UnicodeStringEii(ptr noundef nonnull align 8 dereferenceable(80) %this, ptr noundef nonnull align 8 dereferenceable(64) %name, i32 noundef %rawOffset, i32 noundef %dstSavings) unnamed_addr #0 align 2 personality ptr @__gxx_personality_v0 {
entry:
  %this.addr = alloca ptr, align 8
  %name.addr = alloca ptr, align 8
  %rawOffset.addr = alloca i32, align 4
  %dstSavings.addr = alloca i32, align 4
  %exn.slot = alloca ptr, align 8
  %ehselector.slot = alloca i32, align 4
  store ptr %this, ptr %this.addr, align 8
  store ptr %name, ptr %name.addr, align 8
  store i32 %rawOffset, ptr %rawOffset.addr, align 4
  store i32 %dstSavings, ptr %dstSavings.addr, align 4
  %this1 = load ptr, ptr %this.addr, align 8
  %0 = getelementptr inbounds i8, ptr %this1, i64 0
  call void @llvm.memset.p0.i64(ptr align 8 %0, i8 0, i64 8, i1 false)
  call void @_ZN6icu_757UObjectC2Ev(ptr noundef nonnull align 8 dereferenceable(8) %this1) #10
  store ptr getelementptr inbounds ({ [13 x ptr] }, ptr @_ZTVN6icu_7512TimeZoneRuleE, i32 0, i32 0, i32 2), ptr %this1, align 8
  %fName = getelementptr inbounds %"class.icu_75::TimeZoneRule", ptr %this1, i32 0, i32 1
  %1 = load ptr, ptr %name.addr, align 8
  invoke void @_ZN6icu_7513UnicodeStringC1ERKS0_(ptr noundef nonnull align 8 dereferenceable(64) %fName, ptr noundef nonnull align 8 dereferenceable(64) %1)
          to label %invoke.cont unwind label %lpad

invoke.cont:                                      ; preds = %entry
  %fRawOffset = getelementptr inbounds %"class.icu_75::TimeZoneRule", ptr %this1, i32 0, i32 2
  %2 = load i32, ptr %rawOffset.addr, align 4
  store i32 %2, ptr %fRawOffset, align 8
  %fDSTSavings = getelementptr inbounds %"class.icu_75::TimeZoneRule", ptr %this1, i32 0, i32 3
  %3 = load i32, ptr %dstSavings.addr, align 4
  store i32 %3, ptr %fDSTSavings, align 4
  ret void

lpad:                                             ; preds = %entry
  %4 = landingpad { ptr, i32 }
          cleanup
  %5 = extractvalue { ptr, i32 } %4, 0
  store ptr %5, ptr %exn.slot, align 8
  %6 = extractvalue { ptr, i32 } %4, 1
  store i32 %6, ptr %ehselector.slot, align 4
  call void @_ZN6icu_757UObjectD2Ev(ptr noundef nonnull align 8 dereferenceable(8) %this1) #10
  br label %eh.resume

eh.resume:                                        ; preds = %lpad
  %exn = load ptr, ptr %exn.slot, align 8
  %sel = load i32, ptr %ehselector.slot, align 4
  %lpad.val = insertvalue { ptr, i32 } poison, ptr %exn, 0
  %lpad.val2 = insertvalue { ptr, i32 } %lpad.val, i32 %sel, 1
  resume { ptr, i32 } %lpad.val2
}

; Function Attrs: mustprogress uwtable
define void @_ZN6icu_7518AnnualTimeZoneRuleC2ERKNS_13UnicodeStringEiiPNS_12DateTimeRuleEii(ptr noundef nonnull align 8 dereferenceable(96) %this, ptr noundef nonnull align 8 dereferenceable(64) %name, i32 noundef %rawOffset, i32 noundef %dstSavings, ptr noundef %dateTimeRule, i32 noundef %startYear, i32 noundef %endYear) unnamed_addr #0 align 2 {
entry:
  %this.addr = alloca ptr, align 8
  %name.addr = alloca ptr, align 8
  %rawOffset.addr = alloca i32, align 4
  %dstSavings.addr = alloca i32, align 4
  %dateTimeRule.addr = alloca ptr, align 8
  %startYear.addr = alloca i32, align 4
  %endYear.addr = alloca i32, align 4
  store ptr %this, ptr %this.addr, align 8
  store ptr %name, ptr %name.addr, align 8
  store i32 %rawOffset, ptr %rawOffset.addr, align 4
  store i32 %dstSavings, ptr %dstSavings.addr, align 4
  store ptr %dateTimeRule, ptr %dateTimeRule.addr, align 8
  store i32 %startYear, ptr %startYear.addr, align 4
  store i32 %endYear, ptr %endYear.addr, align 4
  %this1 = load ptr, ptr %this.addr, align 8
  %0 = load ptr, ptr %name.addr, align 8
  %1 = load i32, ptr %rawOffset.addr, align 4
  %2 = load i32, ptr %dstSavings.addr, align 4
  call void @_ZN6icu_7512TimeZoneRuleC2ERKNS_13UnicodeStringEii(ptr noundef nonnull align 8 dereferenceable(80) %this1, ptr noundef nonnull align 8 dereferenceable(64) %0, i32 noundef %1, i32 noundef %2)
  store ptr getelementptr inbounds ({ [13 x ptr] }, ptr @_ZTVN6icu_7518AnnualTimeZoneRuleE, i32 0, i32 0, i32 2), ptr %this1, align 8
  %fDateTimeRule = getelementptr inbounds %"class.icu_75::AnnualTimeZoneRule", ptr %this1, i32 0, i32 1
  %3 = load ptr, ptr %dateTimeRule.addr, align 8
  store ptr %3, ptr %fDateTimeRule, align 8
  %fStartYear = getelementptr inbounds %"class.icu_75::AnnualTimeZoneRule", ptr %this1, i32 0, i32 2
  %4 = load i32, ptr %startYear.addr, align 4
  store i32 %4, ptr %fStartYear, align 8
  %fEndYear = getelementptr inbounds %"class.icu_75::AnnualTimeZoneRule", ptr %this1, i32 0, i32 3
  %5 = load i32, ptr %endYear.addr, align 4
  store i32 %5, ptr %fEndYear, align 4
  ret void
}