; Function Attrs: mustprogress uwtable
define void @_ZN6icu_7518AnnualTimeZoneRuleC2ERKNS_13UnicodeStringEiiPNS_12DateTimeRuleEii(ptr noundef nonnull align 8 dereferenceable(96) %this, ptr noundef nonnull align 8 dereferenceable(64) %name, i32 noundef %rawOffset, i32 noundef %dstSavings, ptr noundef %dateTimeRule, i32 noundef %startYear, i32 noundef %endYear) unnamed_addr #0 align 2 personality ptr @__gxx_personality_v0 {
entry:
  store ptr getelementptr inbounds ({ [13 x ptr] }, ptr @_ZTVN6icu_7512TimeZoneRuleE, i64 0, i32 0, i64 2), ptr %this, align 8
  %fName.i = getelementptr inbounds i8, ptr %this, i64 8
  invoke void @_ZN6icu_7513UnicodeStringC1ERKS0_(ptr noundef nonnull align 8 dereferenceable(64) %fName.i, ptr noundef nonnull align 8 dereferenceable(64) %name)
          to label %_ZN6icu_7512TimeZoneRuleC2ERKNS_13UnicodeStringEii.exit unwind label %lpad.i

lpad.i:                                           ; preds = %entry
  %0 = landingpad { ptr, i32 }
          cleanup
  tail call void @_ZN6icu_757UObjectD2Ev(ptr noundef nonnull align 8 dereferenceable(8) %this) #16
  resume { ptr, i32 } %0

_ZN6icu_7512TimeZoneRuleC2ERKNS_13UnicodeStringEii.exit: ; preds = %entry
  %fRawOffset.i = getelementptr inbounds i8, ptr %this, i64 72
  store i32 %rawOffset, ptr %fRawOffset.i, align 8
  %fDSTSavings.i = getelementptr inbounds i8, ptr %this, i64 76
  store i32 %dstSavings, ptr %fDSTSavings.i, align 4
  store ptr getelementptr inbounds ({ [13 x ptr] }, ptr @_ZTVN6icu_7518AnnualTimeZoneRuleE, i64 0, i32 0, i64 2), ptr %this, align 8
  %fDateTimeRule = getelementptr inbounds i8, ptr %this, i64 80
  store ptr %dateTimeRule, ptr %fDateTimeRule, align 8
  %fStartYear = getelementptr inbounds i8, ptr %this, i64 88
  store i32 %startYear, ptr %fStartYear, align 8
  %fEndYear = getelementptr inbounds i8, ptr %this, i64 92
  store i32 %endYear, ptr %fEndYear, align 4
  ret void
}